target datalayout = "e-m:e-p270:32:32-p271:32:32-p272:64:64-i64:64-i128:128-f80:128-n8:16:32:64-S128"
target triple = "x86_64-unknown-linux-gnu"

%"class.std::__cxx11::basic_string" = type { %"struct.std::__cxx11::basic_string<char>::_Alloc_hider", i64, %union.anon }
%"struct.std::__cxx11::basic_string<char>::_Alloc_hider" = type { ptr }
%union.anon = type { i64, [8 x i8] }
%"class.absl::bernoulli_distribution" = type { %"class.absl::bernoulli_distribution::param_type" }
%"class.absl::bernoulli_distribution::param_type" = type { double }
%"class.absl::random_internal::FastUniformBits" = type { i8 }
%"class.absl::random_internal::sequence_urbg" = type { i64, %"class.std::vector.86" }
%"class.std::vector.86" = type { %"struct.std::_Vector_base.87" }
%"struct.std::_Vector_base.87" = type { %"struct.std::_Vector_base<unsigned long, std::allocator<unsigned long>>::_Vector_impl" }
%"struct.std::_Vector_base<unsigned long, std::allocator<unsigned long>>::_Vector_impl" = type { %"struct.std::_Vector_base<unsigned long, std::allocator<unsigned long>>::_Vector_impl_data" }
%"struct.std::_Vector_base<unsigned long, std::allocator<unsigned long>>::_Vector_impl_data" = type { ptr, ptr, ptr }
%class.anon = type { ptr }

@.str.56 = private unnamed_addr constant [2 x i8] c"1\00", align 1
@.str.57 = private unnamed_addr constant [2 x i8] c"0\00", align 1

; Function Attrs: mustprogress nounwind uwtable
define linkonce_odr dso_local noundef nonnull align 8 dereferenceable(8) ptr @_ZNSt6vectorImSaImEEixEm(ptr noundef nonnull align 8 dereferenceable(24) %this, i64 noundef %__n) #5 comdat align 2 {
entry:
  %this.addr = alloca ptr, align 8
  %__n.addr = alloca i64, align 8
  store ptr %this, ptr %this.addr, align 8
  store i64 %__n, ptr %__n.addr, align 8
  %this1 = load ptr, ptr %this.addr, align 8
  %_M_impl = getelementptr inbounds %"struct.std::_Vector_base.87", ptr %this1, i32 0, i32 0
  %_M_start = getelementptr inbounds %"struct.std::_Vector_base<unsigned long, std::allocator<unsigned long>>::_Vector_impl_data", ptr %_M_impl, i32 0, i32 0
  %0 = load ptr, ptr %_M_start, align 8
  %1 = load i64, ptr %__n.addr, align 8
  %add.ptr = getelementptr inbounds i64, ptr %0, i64 %1
  ret ptr %add.ptr
}

; Function Attrs: mustprogress nounwind uwtable
define linkonce_odr dso_local noundef i64 @_ZNKSt6vectorImSaImEE4sizeEv(ptr noundef nonnull align 8 dereferenceable(24) %this) #5 comdat align 2 {
entry:
  %this.addr = alloca ptr, align 8
  store ptr %this, ptr %this.addr, align 8
  %this1 = load ptr, ptr %this.addr, align 8
  %_M_impl = getelementptr inbounds %"struct.std::_Vector_base.87", ptr %this1, i32 0, i32 0
  %_M_finish = getelementptr inbounds %"struct.std::_Vector_base<unsigned long, std::allocator<unsigned long>>::_Vector_impl_data", ptr %_M_impl, i32 0, i32 1
  %0 = load ptr, ptr %_M_finish, align 8
  %_M_impl2 = getelementptr inbounds %"struct.std::_Vector_base.87", ptr %this1, i32 0, i32 0
  %_M_start = getelementptr inbounds %"struct.std::_Vector_base<unsigned long, std::allocator<unsigned long>>::_Vector_impl_data", ptr %_M_impl2, i32 0, i32 0
  %1 = load ptr, ptr %_M_start, align 8
  %sub.ptr.lhs.cast = ptrtoint ptr %0 to i64
  %sub.ptr.rhs.cast = ptrtoint ptr %1 to i64
  %sub.ptr.sub = sub i64 %sub.ptr.lhs.cast, %sub.ptr.rhs.cast
  %sub.ptr.div = sdiv exact i64 %sub.ptr.sub, 8
  ret i64 %sub.ptr.div
}

; Function Attrs: mustprogress nounwind uwtable
define linkonce_odr dso_local noundef i64 @_ZN4absl15random_internal13sequence_urbgclEv(ptr noundef nonnull align 8 dereferenceable(32) %this) #5 comdat align 2 {
entry:
  %this.addr = alloca ptr, align 8
  store ptr %this, ptr %this.addr, align 8
  %this1 = load ptr, ptr %this.addr, align 8
  %data_ = getelementptr inbounds %"class.absl::random_internal::sequence_urbg", ptr %this1, i32 0, i32 1
  %i_ = getelementptr inbounds %"class.absl::random_internal::sequence_urbg", ptr %this1, i32 0, i32 0
  %0 = load i64, ptr %i_, align 8
  %inc = add i64 %0, 1
  store i64 %inc, ptr %i_, align 8
  %data_2 = getelementptr inbounds %"class.absl::random_internal::sequence_urbg", ptr %this1, i32 0, i32 1
  %call = call noundef i64 @_ZNKSt6vectorImSaImEE4sizeEv(ptr noundef nonnull align 8 dereferenceable(24) %data_2) #3
  %rem = urem i64 %0, %call
  %call3 = call noundef nonnull align 8 dereferenceable(8) ptr @_ZNSt6vectorImSaImEEixEm(ptr noundef nonnull align 8 dereferenceable(24) %data_, i64 noundef %rem) #3
  %1 = load i64, ptr %call3, align 8
  ret i64 %1
}

; Function Attrs: mustprogress uwtable
define linkonce_odr dso_local noundef i32 @_ZN4absl15random_internal15FastUniformBitsIjE8GenerateINS0_13sequence_urbgEEEjRT_NS0_17SimplifiedLoopTagE(ptr noundef nonnull align 1 dereferenceable(1) %this, ptr noundef nonnull align 8 dereferenceable(32) %g) #4 comdat align 2 {
entry:
  %this.addr = alloca ptr, align 8
  %g.addr = alloca ptr, align 8
  %r = alloca i32, align 4
  %n = alloca i64, align 8
  store ptr %this, ptr %this.addr, align 8
  store ptr %g, ptr %g.addr, align 8
  %0 = load ptr, ptr %g.addr, align 8
  %call = call noundef i64 @_ZN4absl15random_internal13sequence_urbgclEv(ptr noundef nonnull align 8 dereferenceable(32) %0)
  %sub = sub i64 %call, 0
  %conv = trunc i64 %sub to i32
  store i32 %conv, ptr %r, align 4
  store i64 1, ptr %n, align 8
  br label %for.cond

for.cond:                                         ; preds = %for.inc, %entry
  %1 = load i64, ptr %n, align 8
  %cmp = icmp ult i64 %1, 1
  br i1 %cmp, label %for.body, label %for.end

for.body:                                         ; preds = %for.cond
  %2 = load i32, ptr %r, align 4
  %shl = shl i32 %2, 0
  %3 = load ptr, ptr %g.addr, align 8
  %call2 = call noundef i64 @_ZN4absl15random_internal13sequence_urbgclEv(ptr noundef nonnull align 8 dereferenceable(32) %3)
  %sub3 = sub i64 %call2, 0
  %conv4 = trunc i64 %sub3 to i32
  %add = add i32 %shl, %conv4
  store i32 %add, ptr %r, align 4
  br label %for.inc

for.inc:                                          ; preds = %for.body
  %4 = load i64, ptr %n, align 8
  %inc = add i64 %4, 1
  store i64 %inc, ptr %n, align 8
  br label %for.cond, !llvm.loop !14

for.end:                                          ; preds = %for.cond
  %5 = load i32, ptr %r, align 4
  ret i32 %5
}

; Function Attrs: mustprogress uwtable
define linkonce_odr dso_local noundef i32 @_ZN4absl15random_internal15FastUniformBitsIjEclINS0_13sequence_urbgEEEjRT_(ptr noundef nonnull align 1 dereferenceable(1) %this, ptr noundef nonnull align 8 dereferenceable(32) %g) #4 comdat align 2 {
entry:
  %this.addr = alloca ptr, align 8
  %g.addr = alloca ptr, align 8
  store ptr %this, ptr %this.addr, align 8
  store ptr %g, ptr %g.addr, align 8
  %this1 = load ptr, ptr %this.addr, align 8
  %0 = load ptr, ptr %g.addr, align 8
  %call = call noundef i32 @_ZN4absl15random_internal15FastUniformBitsIjE8GenerateINS0_13sequence_urbgEEEjRT_NS0_17SimplifiedLoopTagE(ptr noundef nonnull align 1 dereferenceable(1) %this1, ptr noundef nonnull align 8 dereferenceable(32) %0)
  ret i32 %call
}

; Function Attrs: mustprogress uwtable
define linkonce_odr dso_local noundef zeroext i1 @_ZN4absl22bernoulli_distribution8GenerateINS_15random_internal13sequence_urbgEEEbdRT_(double noundef %p, ptr noundef nonnull align 8 dereferenceable(32) %g) #4 comdat align 2 {
entry:
  %retval = alloca i1, align 1
  %p.addr = alloca double, align 8
  %g.addr = alloca ptr, align 8
  %fast_u32 = alloca %"class.absl::random_internal::FastUniformBits", align 1
  %c = alloca i64, align 8
  %v = alloca i32, align 4
  %q = alloca double, align 8
  %left = alloca double, align 8
  %here = alloca double, align 8
  store double %p, ptr %p.addr, align 8
  store ptr %g, ptr %g.addr, align 8
  br label %while.body

while.body:                                       ; preds = %if.end9, %entry
  %0 = load double, ptr %p.addr, align 8
  %mul = fmul double %0, 0x41F0000000000000
  %conv = fptosi double %mul to i64
  store i64 %conv, ptr %c, align 8
  %1 = load ptr, ptr %g.addr, align 8
  %call = call noundef i32 @_ZN4absl15random_internal15FastUniformBitsIjEclINS0_13sequence_urbgEEEjRT_(ptr noundef nonnull align 1 dereferenceable(1) %fast_u32, ptr noundef nonnull align 8 dereferenceable(32) %1)
  store i32 %call, ptr %v, align 4
  %2 = load i32, ptr %v, align 4
  %conv1 = zext i32 %2 to i64
  %3 = load i64, ptr %c, align 8
  %cmp = icmp ne i64 %conv1, %3
  br i1 %cmp, label %if.then, label %if.end

if.then:                                          ; preds = %while.body
  %4 = load i32, ptr %v, align 4
  %conv3 = zext i32 %4 to i64
  %5 = load i64, ptr %c, align 8
  %cmp4 = icmp ult i64 %conv3, %5
  store i1 %cmp4, ptr %retval, align 1
  br label %return

if.end:                                           ; preds = %while.body
  %6 = load i64, ptr %c, align 8
  %conv5 = uitofp i64 %6 to double
  %div = fdiv double %conv5, 0x41F0000000000000
  store double %div, ptr %q, align 8
  %7 = load double, ptr %p.addr, align 8
  %8 = load double, ptr %q, align 8
  %sub = fsub double %7, %8
  store double %sub, ptr %left, align 8
  %9 = load double, ptr %left, align 8
  %mul6 = fmul double %9, 0x41F0000000000000
  store double %mul6, ptr %here, align 8
  %10 = load double, ptr %here, align 8
  %cmp7 = fcmp oeq double %10, 0.000000e+00
  br i1 %cmp7, label %if.then8, label %if.end9

if.then8:                                         ; preds = %if.end
  store i1 false, ptr %retval, align 1
  br label %return

if.end9:                                          ; preds = %if.end
  %11 = load double, ptr %here, align 8
  store double %11, ptr %p.addr, align 8
  br label %while.body, !llvm.loop !13

return:                                           ; preds = %if.then8, %if.then
  %12 = load i1, ptr %retval, align 1
  ret i1 %12
}

; Function Attrs: mustprogress nounwind uwtable
define linkonce_odr dso_local noundef double @_ZNK4absl22bernoulli_distribution10param_type1pEv(ptr noundef nonnull align 8 dereferenceable(8) %this) #5 comdat align 2 {
entry:
  %this.addr = alloca ptr, align 8
  store ptr %this, ptr %this.addr, align 8
  %this1 = load ptr, ptr %this.addr, align 8
  %prob_ = getelementptr inbounds %"class.absl::bernoulli_distribution::param_type", ptr %this1, i32 0, i32 0
  %0 = load double, ptr %prob_, align 8
  ret double %0
}

; Function Attrs: mustprogress uwtable
define linkonce_odr dso_local noundef zeroext i1 @_ZN4absl22bernoulli_distributionclINS_15random_internal13sequence_urbgEEEbRT_(ptr noundef nonnull align 8 dereferenceable(8) %this, ptr noundef nonnull align 8 dereferenceable(32) %g) #4 comdat align 2 {
entry:
  %this.addr = alloca ptr, align 8
  %g.addr = alloca ptr, align 8
  store ptr %this, ptr %this.addr, align 8
  store ptr %g, ptr %g.addr, align 8
  %this1 = load ptr, ptr %this.addr, align 8
  %param_ = getelementptr inbounds %"class.absl::bernoulli_distribution", ptr %this1, i32 0, i32 0
  %call = call noundef double @_ZNK4absl22bernoulli_distribution10param_type1pEv(ptr noundef nonnull align 8 dereferenceable(8) %param_)
  %0 = load ptr, ptr %g.addr, align 8
  %call2 = call noundef zeroext i1 @_ZN4absl22bernoulli_distribution8GenerateINS_15random_internal13sequence_urbgEEEbdRT_(double noundef %call, ptr noundef nonnull align 8 dereferenceable(32) %0)
  ret i1 %call2
}

; Function Attrs: mustprogress nounwind uwtable
define linkonce_odr dso_local void @_ZN4absl15random_internal13sequence_urbg5resetEv(ptr noundef nonnull align 8 dereferenceable(32) %this) #5 comdat align 2 {
entry:
  %this.addr = alloca ptr, align 8
  store ptr %this, ptr %this.addr, align 8
  %this1 = load ptr, ptr %this.addr, align 8
  %i_ = getelementptr inbounds %"class.absl::random_internal::sequence_urbg", ptr %this1, i32 0, i32 0
  store i64 0, ptr %i_, align 8
  ret void
}

; Function Attrs: mustprogress uwtable
define internal void @"_ZZN12_GLOBAL__N_132BernoulliTest_StabilityTest_Test8TestBodyEvENK3$_0clB5cxx11ERN4absl22bernoulli_distributionE"(ptr noalias sret(%"class.std::__cxx11::basic_string") align 8 %agg.result, ptr noundef nonnull align 8 dereferenceable(8) %this, ptr noundef nonnull align 8 dereferenceable(8) %dist) #4 align 2 personality ptr @__gxx_personality_v0 {
entry:
  %result.ptr = alloca ptr, align 8
  %this.addr = alloca ptr, align 8
  %dist.addr = alloca ptr, align 8
  %nrvo = alloca i1, align 1
  %exn.slot = alloca ptr, align 8
  %ehselector.slot = alloca i32, align 4
  %i = alloca i32, align 4
  store ptr %agg.result, ptr %result.ptr, align 8
  store ptr %this, ptr %this.addr, align 8
  store ptr %dist, ptr %dist.addr, align 8
  %this1 = load ptr, ptr %this.addr, align 8
  store i1 false, ptr %nrvo, align 1
  call void @_ZNSt7__cxx1112basic_stringIcSt11char_traitsIcESaIcEEC1Ev(ptr noundef nonnull align 8 dereferenceable(32) %agg.result) #3
  invoke void @_ZNSt7__cxx1112basic_stringIcSt11char_traitsIcESaIcEE7reserveEm(ptr noundef nonnull align 8 dereferenceable(32) %agg.result, i64 noundef 36)
          to label %invoke.cont unwind label %lpad

invoke.cont:                                      ; preds = %entry
  %0 = getelementptr inbounds %class.anon, ptr %this1, i32 0, i32 0
  %1 = load ptr, ptr %0, align 8
  invoke void @_ZN4absl15random_internal13sequence_urbg5resetEv(ptr noundef nonnull align 8 dereferenceable(32) %1)
          to label %invoke.cont2 unwind label %lpad

invoke.cont2:                                     ; preds = %invoke.cont
  store i32 0, ptr %i, align 4
  br label %for.cond

for.cond:                                         ; preds = %for.inc, %invoke.cont2
  %2 = load i32, ptr %i, align 4
  %cmp = icmp slt i32 %2, 35
  br i1 %cmp, label %for.body, label %for.end

for.body:                                         ; preds = %for.cond
  %3 = load ptr, ptr %dist.addr, align 8
  %4 = getelementptr inbounds %class.anon, ptr %this1, i32 0, i32 0
  %5 = load ptr, ptr %4, align 8
  %call = invoke noundef zeroext i1 @_ZN4absl22bernoulli_distributionclINS_15random_internal13sequence_urbgEEEbRT_(ptr noundef nonnull align 8 dereferenceable(8) %3, ptr noundef nonnull align 8 dereferenceable(32) %5)
          to label %invoke.cont3 unwind label %lpad

invoke.cont3:                                     ; preds = %for.body
  br i1 %call, label %cond.true, label %cond.false

cond.true:                                        ; preds = %invoke.cont3
  br label %cond.end

cond.false:                                       ; preds = %invoke.cont3
  br label %cond.end

cond.end:                                         ; preds = %cond.false, %cond.true
  %cond-lvalue = phi ptr [ @.str.56, %cond.true ], [ @.str.57, %cond.false ]
  %arraydecay = getelementptr inbounds [2 x i8], ptr %cond-lvalue, i64 0, i64 0
  %call5 = invoke noundef nonnull align 8 dereferenceable(32) ptr @_ZNSt7__cxx1112basic_stringIcSt11char_traitsIcESaIcEE6appendEPKc(ptr noundef nonnull align 8 dereferenceable(32) %agg.result, ptr noundef %arraydecay)
          to label %invoke.cont4 unwind label %lpad

invoke.cont4:                                     ; preds = %cond.end
  br label %for.inc

for.inc:                                          ; preds = %invoke.cont4
  %6 = load i32, ptr %i, align 4
  %inc = add nsw i32 %6, 1
  store i32 %inc, ptr %i, align 4
  br label %for.cond, !llvm.loop !12

lpad:                                             ; preds = %cond.end, %for.body, %invoke.cont, %entry
  %7 = landingpad { ptr, i32 }
          cleanup
  %8 = extractvalue { ptr, i32 } %7, 0
  store ptr %8, ptr %exn.slot, align 8
  %9 = extractvalue { ptr, i32 } %7, 1
  store i32 %9, ptr %ehselector.slot, align 4
  call void @_ZNSt7__cxx1112basic_stringIcSt11char_traitsIcESaIcEED1Ev(ptr noundef nonnull align 8 dereferenceable(32) %agg.result) #3
  br label %eh.resume

for.end:                                          ; preds = %for.cond
  store i1 true, ptr %nrvo, align 1
  %nrvo.val = load i1, ptr %nrvo, align 1
  br i1 %nrvo.val, label %nrvo.skipdtor, label %nrvo.unused

nrvo.unused:                                      ; preds = %for.end
  call void @_ZNSt7__cxx1112basic_stringIcSt11char_traitsIcESaIcEED1Ev(ptr noundef nonnull align 8 dereferenceable(32) %agg.result) #3
  br label %nrvo.skipdtor

nrvo.skipdtor:                                    ; preds = %nrvo.unused, %for.end
  ret void

eh.resume:                                        ; preds = %lpad
  %exn = load ptr, ptr %exn.slot, align 8
  %sel = load i32, ptr %ehselector.slot, align 4
  %lpad.val = insertvalue { ptr, i32 } poison, ptr %exn, 0
  %lpad.val6 = insertvalue { ptr, i32 } %lpad.val, i32 %sel, 1
  resume { ptr, i32 } %lpad.val6
}