; Function Attrs: mustprogress uwtable
define internal fastcc void @"_ZZN12_GLOBAL__N_132BernoulliTest_StabilityTest_Test8TestBodyEvENK3$_0clB5cxx11ERN4absl22bernoulli_distributionE"(ptr noalias nonnull align 8 %agg.result, ptr nocapture noundef nonnull readonly align 8 dereferenceable(8) %this, ptr nocapture noundef nonnull readonly align 8 dereferenceable(8) %dist) unnamed_addr #3 align 2 personality ptr @__gxx_personality_v0 {
entry:
  tail call void @_ZNSt7__cxx1112basic_stringIcSt11char_traitsIcESaIcEEC1Ev(ptr noundef nonnull align 8 dereferenceable(32) %agg.result) #24
  invoke void @_ZNSt7__cxx1112basic_stringIcSt11char_traitsIcESaIcEE7reserveEm(ptr noundef nonnull align 8 dereferenceable(32) %agg.result, i64 noundef 36)
          to label %invoke.cont unwind label %lpad.loopexit.split-lp

invoke.cont:                                      ; preds = %entry
  %0 = load ptr, ptr %this, align 8
  store i64 0, ptr %0, align 8
  br label %for.body

for.body:                                         ; preds = %invoke.cont, %for.inc
  %i.08 = phi i32 [ 0, %invoke.cont ], [ %inc, %for.inc ]
  %1 = load ptr, ptr %this, align 8
  %2 = load double, ptr %dist, align 8
  %data_.i.i.i.i.i = getelementptr inbounds i8, ptr %1, i64 8
  %_M_finish.i.i.i.i.i.i = getelementptr inbounds i8, ptr %1, i64 16
  %3 = load ptr, ptr %_M_finish.i.i.i.i.i.i, align 8
  %4 = load ptr, ptr %data_.i.i.i.i.i, align 8
  %sub.ptr.lhs.cast.i.i.i.i.i.i = ptrtoint ptr %3 to i64
  %sub.ptr.rhs.cast.i.i.i.i.i.i = ptrtoint ptr %4 to i64
  %sub.ptr.sub.i.i.i.i.i.i = sub i64 %sub.ptr.lhs.cast.i.i.i.i.i.i, %sub.ptr.rhs.cast.i.i.i.i.i.i
  %sub.ptr.div.i.i.i.i.i.i = ashr exact i64 %sub.ptr.sub.i.i.i.i.i.i, 3
  %g.promoted.i.i = load i64, ptr %1, align 8
  br label %while.body.i.i

while.body.i.i:                                   ; preds = %if.end.i.i, %for.body
  %inc.i.i.i8.i.i = phi i64 [ %g.promoted.i.i, %for.body ], [ %inc.i.i.i.i.i, %if.end.i.i ]
  %p.addr.0.i.i = phi double [ %2, %for.body ], [ %mul6.i.i, %if.end.i.i ]
  %mul.i.i = fmul double %p.addr.0.i.i, 0x41F0000000000000
  %conv.i.i = fptosi double %mul.i.i to i64
  %inc.i.i.i.i.i = add i64 %inc.i.i.i8.i.i, 1
  store i64 %inc.i.i.i.i.i, ptr %1, align 8
  %rem.i.i.i.i.i = urem i64 %inc.i.i.i8.i.i, %sub.ptr.div.i.i.i.i.i.i
  %add.ptr.i.i.i.i.i.i = getelementptr inbounds i64, ptr %4, i64 %rem.i.i.i.i.i
  %5 = load i64, ptr %add.ptr.i.i.i.i.i.i, align 8
  %conv1.i.i = and i64 %5, 4294967295
  %cmp.not.i.i = icmp eq i64 %conv1.i.i, %conv.i.i
  br i1 %cmp.not.i.i, label %if.end.i.i, label %invoke.cont3

if.end.i.i:                                       ; preds = %while.body.i.i
  %conv5.i.i = uitofp i64 %conv.i.i to double
  %div.i.i = fmul double %conv5.i.i, 0x3DF0000000000000
  %sub.i.i = fsub double %p.addr.0.i.i, %div.i.i
  %mul6.i.i = fmul double %sub.i.i, 0x41F0000000000000
  %cmp7.i.i = fcmp oeq double %mul6.i.i, 0.000000e+00
  br i1 %cmp7.i.i, label %invoke.cont3.thread, label %while.body.i.i, !llvm.loop !156

invoke.cont3:                                     ; preds = %while.body.i.i
  %cmp4.i.i = icmp ult i64 %conv1.i.i, %conv.i.i
  %cond.fr = freeze i1 %cmp4.i.i
  %spec.select = select i1 %cond.fr, ptr @.str.56, ptr @.str.57
  br label %invoke.cont3.thread

invoke.cont3.thread:                              ; preds = %if.end.i.i, %invoke.cont3
  %6 = phi ptr [ %spec.select, %invoke.cont3 ], [ @.str.57, %if.end.i.i ]
  %call5 = invoke noundef nonnull align 8 dereferenceable(32) ptr @_ZNSt7__cxx1112basic_stringIcSt11char_traitsIcESaIcEE6appendEPKc(ptr noundef nonnull align 8 dereferenceable(32) %agg.result, ptr noundef nonnull %6)
          to label %for.inc unwind label %lpad.loopexit

for.inc:                                          ; preds = %invoke.cont3.thread
  %inc = add nuw nsw i32 %i.08, 1
  %exitcond.not = icmp eq i32 %inc, 35
  br i1 %exitcond.not, label %nrvo.skipdtor, label %for.body, !llvm.loop !157

lpad.loopexit:                                    ; preds = %invoke.cont3.thread
  %lpad.loopexit4 = landingpad { ptr, i32 }
          cleanup
  br label %lpad

lpad.loopexit.split-lp:                           ; preds = %entry
  %lpad.loopexit.split-lp5 = landingpad { ptr, i32 }
          cleanup
  br label %lpad

lpad:                                             ; preds = %lpad.loopexit.split-lp, %lpad.loopexit
  %lpad.phi = phi { ptr, i32 } [ %lpad.loopexit4, %lpad.loopexit ], [ %lpad.loopexit.split-lp5, %lpad.loopexit.split-lp ]
  tail call void @_ZNSt7__cxx1112basic_stringIcSt11char_traitsIcESaIcEED1Ev(ptr noundef nonnull align 8 dereferenceable(32) %agg.result) #24
  resume { ptr, i32 } %lpad.phi

nrvo.skipdtor:                                    ; preds = %for.inc
  ret void
}